target datalayout = "e-m:e-p270:32:32-p271:32:32-p272:64:64-i64:64-i128:128-f80:128-n8:16:32:64-S128"
target triple = "x86_64-pc-linux-gnu"

%struct.PaUnixThread = type { i64, i32, i32, i32, %struct.PaUnixMutex, %union.pthread_cond_t, i32, i32 }
%struct.PaUnixMutex = type { %union.pthread_mutex_t }
%union.pthread_mutex_t = type { %struct.__pthread_mutex_s }
%struct.__pthread_mutex_s = type { i32, i32, i32, i32, i32, i16, i16, %struct.__pthread_internal_list }
%struct.__pthread_internal_list = type { ptr, ptr }
%union.pthread_cond_t = type { %struct.__pthread_cond_s }
%struct.__pthread_cond_s = type { %union.__atomic_wide_counter, %union.__atomic_wide_counter, [2 x i32], [2 x i32], i32, i32, [2 x i32] }
%union.__atomic_wide_counter = type { i64 }

@paUtilErr_ = internal global i32 0, align 4
@paUnixMainThread = global i64 0, align 8
@.str.11 = private unnamed_addr constant [181 x i8] c"Expression 'self->parentWaiting' failed in 'generated/home/dtcxzyw/WorkSpace/Projects/compilers/llvm-opt-benchmark/bench/portaudio/portaudio/src/os/unix/pa_unix_util.c', line: 495\0A\00", align 1
@.str.12 = private unnamed_addr constant [192 x i8] c"Expression 'PaUnixMutex_Lock( &self->mtx )' failed in 'generated/home/dtcxzyw/WorkSpace/Projects/compilers/llvm-opt-benchmark/bench/portaudio/portaudio/src/os/unix/pa_unix_util.c', line: 499\0A\00", align 1
@.str.13 = private unnamed_addr constant [194 x i8] c"Expression 'PaUnixMutex_Unlock( &self->mtx )' failed in 'generated/home/dtcxzyw/WorkSpace/Projects/compilers/llvm-opt-benchmark/bench/portaudio/portaudio/src/os/unix/pa_unix_util.c', line: 504\0A\00", align 1
@.str.14 = private unnamed_addr constant [194 x i8] c"Expression 'pthread_mutex_lock( &self->mtx )' failed in 'generated/home/dtcxzyw/WorkSpace/Projects/compilers/llvm-opt-benchmark/bench/portaudio/portaudio/src/os/unix/pa_unix_util.c', line: 543\0A\00", align 1
@.str.15 = private unnamed_addr constant [196 x i8] c"Expression 'pthread_mutex_unlock( &self->mtx )' failed in 'generated/home/dtcxzyw/WorkSpace/Projects/compilers/llvm-opt-benchmark/bench/portaudio/portaudio/src/os/unix/pa_unix_util.c', line: 557\0A\00", align 1

; Function Attrs: inlinehint nounwind willreturn memory(none) uwtable
define available_externally i32 @pthread_equal(i64 noundef %0, i64 noundef %1) #9 {
  %3 = alloca i64, align 8
  %4 = alloca i64, align 8
  store i64 %0, ptr %3, align 8, !tbaa !3
  store i64 %1, ptr %4, align 8, !tbaa !3
  %5 = load i64, ptr %3, align 8, !tbaa !3
  %6 = load i64, ptr %4, align 8, !tbaa !3
  %7 = icmp eq i64 %5, %6
  %8 = zext i1 %7 to i32
  ret i32 %8
}

; Function Attrs: nounwind uwtable
define i32 @PaUnixMutex_Unlock(ptr noundef %0) #0 {
  %2 = alloca ptr, align 8
  %3 = alloca i32, align 4
  store ptr %0, ptr %2, align 8, !tbaa !7
  call void @llvm.lifetime.start.p0(i64 4, ptr %3) #10
  store i32 0, ptr %3, align 4, !tbaa !14
  br label %4

4:                                                ; preds = %1
  %5 = load ptr, ptr %2, align 8, !tbaa !7
  %6 = getelementptr inbounds nuw %struct.PaUnixMutex, ptr %5, i32 0, i32 0
  %7 = call i32 @pthread_mutex_unlock(ptr noundef %6) #10
  store i32 %7, ptr @paUtilErr_, align 4, !tbaa !14
  %8 = icmp ne i32 %7, 0
  %9 = zext i1 %8 to i32
  %10 = sext i32 %9 to i64
  %11 = call i64 @llvm.expect.i64(i64 %10, i64 0)
  %12 = icmp ne i64 %11, 0
  br i1 %12, label %13, label %24

13:                                               ; preds = %4
  %14 = call i64 @pthread_self() #12
  %15 = load i64, ptr @paUnixMainThread, align 8, !tbaa !3
  %16 = call i32 @pthread_equal(i64 noundef %14, i64 noundef %15) #12
  %17 = icmp ne i32 %16, 0
  br i1 %17, label %18, label %23

18:                                               ; preds = %13
  %19 = load i32, ptr @paUtilErr_, align 4, !tbaa !14
  %20 = sext i32 %19 to i64
  %21 = load i32, ptr @paUtilErr_, align 4, !tbaa !14
  %22 = call ptr @strerror(i32 noundef %21) #10
  call void @PaUtil_SetLastHostErrorInfo(i32 noundef 8, i64 noundef %20, ptr noundef %22)
  br label %23

23:                                               ; preds = %18, %13
  call void (ptr, ...) @PaUtil_DebugPrint(ptr noundef @.str.15)
  store i32 -9999, ptr %3, align 4, !tbaa !14
  br label %27

24:                                               ; preds = %4
  br label %25

25:                                               ; preds = %24
  br label %26

26:                                               ; preds = %25
  br label %27

27:                                               ; preds = %26, %23
  %28 = load i32, ptr %3, align 4, !tbaa !14
  call void @llvm.lifetime.end.p0(i64 4, ptr %3) #10
  ret i32 %28
}

; Function Attrs: nounwind uwtable
define i32 @PaUnixMutex_Lock(ptr noundef %0) #0 {
  %2 = alloca ptr, align 8
  %3 = alloca i32, align 4
  store ptr %0, ptr %2, align 8, !tbaa !7
  call void @llvm.lifetime.start.p0(i64 4, ptr %3) #10
  store i32 0, ptr %3, align 4, !tbaa !14
  br label %4

4:                                                ; preds = %1
  %5 = load ptr, ptr %2, align 8, !tbaa !7
  %6 = getelementptr inbounds nuw %struct.PaUnixMutex, ptr %5, i32 0, i32 0
  %7 = call i32 @pthread_mutex_lock(ptr noundef %6) #10
  store i32 %7, ptr @paUtilErr_, align 4, !tbaa !14
  %8 = icmp ne i32 %7, 0
  %9 = zext i1 %8 to i32
  %10 = sext i32 %9 to i64
  %11 = call i64 @llvm.expect.i64(i64 %10, i64 0)
  %12 = icmp ne i64 %11, 0
  br i1 %12, label %13, label %24

13:                                               ; preds = %4
  %14 = call i64 @pthread_self() #12
  %15 = load i64, ptr @paUnixMainThread, align 8, !tbaa !3
  %16 = call i32 @pthread_equal(i64 noundef %14, i64 noundef %15) #12
  %17 = icmp ne i32 %16, 0
  br i1 %17, label %18, label %23

18:                                               ; preds = %13
  %19 = load i32, ptr @paUtilErr_, align 4, !tbaa !14
  %20 = sext i32 %19 to i64
  %21 = load i32, ptr @paUtilErr_, align 4, !tbaa !14
  %22 = call ptr @strerror(i32 noundef %21) #10
  call void @PaUtil_SetLastHostErrorInfo(i32 noundef 8, i64 noundef %20, ptr noundef %22)
  br label %23

23:                                               ; preds = %18, %13
  call void (ptr, ...) @PaUtil_DebugPrint(ptr noundef @.str.14)
  store i32 -9999, ptr %3, align 4, !tbaa !14
  br label %27

24:                                               ; preds = %4
  br label %25

25:                                               ; preds = %24
  br label %26

26:                                               ; preds = %25
  br label %27

27:                                               ; preds = %26, %23
  %28 = load i32, ptr %3, align 4, !tbaa !14
  call void @llvm.lifetime.end.p0(i64 4, ptr %3) #10
  ret i32 %28
}

; Function Attrs: nounwind uwtable
define i32 @PaUnixThread_NotifyParent(ptr noundef %0) #0 {
  %2 = alloca ptr, align 8
  %3 = alloca i32, align 4
  store ptr %0, ptr %2, align 8, !tbaa !7
  call void @llvm.lifetime.start.p0(i64 4, ptr %3) #10
  store i32 0, ptr %3, align 4, !tbaa !14
  br label %4

4:                                                ; preds = %1
  %5 = load ptr, ptr %2, align 8, !tbaa !7
  %6 = getelementptr inbounds nuw %struct.PaUnixThread, ptr %5, i32 0, i32 1
  %7 = load i32, ptr %6, align 8, !tbaa !25
  %8 = icmp eq i32 %7, 0
  %9 = zext i1 %8 to i32
  %10 = sext i32 %9 to i64
  %11 = call i64 @llvm.expect.i64(i64 %10, i64 0)
  %12 = icmp ne i64 %11, 0
  br i1 %12, label %13, label %14

13:                                               ; preds = %4
  call void (ptr, ...) @PaUtil_DebugPrint(ptr noundef @.str.11)
  store i32 -9986, ptr %3, align 4, !tbaa !14
  br label %60

14:                                               ; preds = %4
  br label %15

15:                                               ; preds = %14
  br label %16

16:                                               ; preds = %15
  %17 = load ptr, ptr %2, align 8, !tbaa !7
  %18 = getelementptr inbounds nuw %struct.PaUnixThread, ptr %17, i32 0, i32 3
  %19 = load i32, ptr %18, align 8, !tbaa !34
  %20 = icmp ne i32 %19, 0
  br i1 %20, label %38, label %21

21:                                               ; preds = %16
  br label %22

22:                                               ; preds = %21
  %23 = load ptr, ptr %2, align 8, !tbaa !7
  %24 = getelementptr inbounds nuw %struct.PaUnixThread, ptr %23, i32 0, i32 4
  %25 = call i32 @PaUnixMutex_Lock(ptr noundef %24)
  store i32 %25, ptr @paUtilErr_, align 4, !tbaa !14
  %26 = icmp slt i32 %25, 0
  %27 = zext i1 %26 to i32
  %28 = sext i32 %27 to i64
  %29 = call i64 @llvm.expect.i64(i64 %28, i64 0)
  %30 = icmp ne i64 %29, 0
  br i1 %30, label %31, label %33

31:                                               ; preds = %22
  call void (ptr, ...) @PaUtil_DebugPrint(ptr noundef @.str.12)
  %32 = load i32, ptr @paUtilErr_, align 4, !tbaa !14
  store i32 %32, ptr %3, align 4, !tbaa !14
  br label %60

33:                                               ; preds = %22
  br label %34

34:                                               ; preds = %33
  br label %35

35:                                               ; preds = %34
  %36 = load ptr, ptr %2, align 8, !tbaa !7
  %37 = getelementptr inbounds nuw %struct.PaUnixThread, ptr %36, i32 0, i32 3
  store i32 1, ptr %37, align 8, !tbaa !34
  br label %38

38:                                               ; preds = %35, %16
  %39 = load ptr, ptr %2, align 8, !tbaa !7
  %40 = getelementptr inbounds nuw %struct.PaUnixThread, ptr %39, i32 0, i32 1
  store i32 0, ptr %40, align 8, !tbaa !25
  %41 = load ptr, ptr %2, align 8, !tbaa !7
  %42 = getelementptr inbounds nuw %struct.PaUnixThread, ptr %41, i32 0, i32 5
  %43 = call i32 @pthread_cond_signal(ptr noundef %42) #10
  br label %44

44:                                               ; preds = %38
  %45 = load ptr, ptr %2, align 8, !tbaa !7
  %46 = getelementptr inbounds nuw %struct.PaUnixThread, ptr %45, i32 0, i32 4
  %47 = call i32 @PaUnixMutex_Unlock(ptr noundef %46)
  store i32 %47, ptr @paUtilErr_, align 4, !tbaa !14
  %48 = icmp slt i32 %47, 0
  %49 = zext i1 %48 to i32
  %50 = sext i32 %49 to i64
  %51 = call i64 @llvm.expect.i64(i64 %50, i64 0)
  %52 = icmp ne i64 %51, 0
  br i1 %52, label %53, label %55

53:                                               ; preds = %44
  call void (ptr, ...) @PaUtil_DebugPrint(ptr noundef @.str.13)
  %54 = load i32, ptr @paUtilErr_, align 4, !tbaa !14
  store i32 %54, ptr %3, align 4, !tbaa !14
  br label %60

55:                                               ; preds = %44
  br label %56

56:                                               ; preds = %55
  br label %57

57:                                               ; preds = %56
  %58 = load ptr, ptr %2, align 8, !tbaa !7
  %59 = getelementptr inbounds nuw %struct.PaUnixThread, ptr %58, i32 0, i32 3
  store i32 0, ptr %59, align 8, !tbaa !34
  br label %60

60:                                               ; preds = %57, %53, %31, %13
  %61 = load i32, ptr %3, align 4, !tbaa !14
  call void @llvm.lifetime.end.p0(i64 4, ptr %3) #10
  ret i32 %61
}