; Function Attrs: nounwind uwtable
define i32 @PaUnixThread_NotifyParent(ptr noundef %0) local_unnamed_addr #6 {
  %2 = getelementptr inbounds nuw i8, ptr %0, i64 8
  %3 = load i32, ptr %2, align 8, !tbaa !21
  %4 = icmp eq i32 %3, 0
  br i1 %4, label %5, label %6, !prof !31

5:                                                ; preds = %1
  tail call void (ptr, ...) @PaUtil_DebugPrint(ptr noundef nonnull @.str.11) #16
  br label %35

6:                                                ; preds = %1
  %7 = getelementptr inbounds nuw i8, ptr %0, i64 16
  %8 = load i32, ptr %7, align 8, !tbaa !32
  %.not = icmp eq i32 %8, 0
  br i1 %.not, label %9, label %21

9:                                                ; preds = %6
  %10 = getelementptr inbounds nuw i8, ptr %0, i64 24
  %11 = tail call i32 @pthread_mutex_lock(ptr noundef nonnull %10) #16
  store i32 %11, ptr @paUtilErr_, align 4, !tbaa !11
  %.not.i = icmp eq i32 %11, 0
  br i1 %.not.i, label %20, label %12, !prof !22

12:                                               ; preds = %9
  %13 = tail call i64 @pthread_self() #17
  %14 = load i64, ptr @paUnixMainThread, align 8, !tbaa !17
  %.not3.i = icmp eq i64 %13, %14
  br i1 %.not3.i, label %15, label %18

15:                                               ; preds = %12
  %16 = sext i32 %11 to i64
  %17 = tail call ptr @strerror(i32 noundef %11) #16
  tail call void @PaUtil_SetLastHostErrorInfo(i32 noundef 8, i64 noundef %16, ptr noundef %17) #16
  br label %18

18:                                               ; preds = %12, %15
  tail call void (ptr, ...) @PaUtil_DebugPrint(ptr noundef nonnull @.str.14) #16
  store i32 -9999, ptr @paUtilErr_, align 4, !tbaa !11
  tail call void (ptr, ...) @PaUtil_DebugPrint(ptr noundef nonnull @.str.12) #16
  %19 = load i32, ptr @paUtilErr_, align 4, !tbaa !11
  br label %35

20:                                               ; preds = %9
  store i32 0, ptr @paUtilErr_, align 4, !tbaa !11
  store i32 1, ptr %7, align 8, !tbaa !32
  br label %21

21:                                               ; preds = %20, %6
  store i32 0, ptr %2, align 8, !tbaa !21
  %22 = getelementptr inbounds nuw i8, ptr %0, i64 64
  %23 = tail call i32 @pthread_cond_signal(ptr noundef nonnull %22) #16
  %24 = getelementptr inbounds nuw i8, ptr %0, i64 24
  %25 = tail call i32 @pthread_mutex_unlock(ptr noundef nonnull %24) #16
  store i32 %25, ptr @paUtilErr_, align 4, !tbaa !11
  %.not.i8 = icmp eq i32 %25, 0
  br i1 %.not.i8, label %34, label %26, !prof !22

26:                                               ; preds = %21
  %27 = tail call i64 @pthread_self() #17
  %28 = load i64, ptr @paUnixMainThread, align 8, !tbaa !17
  %.not3.i9 = icmp eq i64 %27, %28
  br i1 %.not3.i9, label %29, label %32

29:                                               ; preds = %26
  %30 = sext i32 %25 to i64
  %31 = tail call ptr @strerror(i32 noundef %25) #16
  tail call void @PaUtil_SetLastHostErrorInfo(i32 noundef 8, i64 noundef %30, ptr noundef %31) #16
  br label %32

32:                                               ; preds = %26, %29
  tail call void (ptr, ...) @PaUtil_DebugPrint(ptr noundef nonnull @.str.15) #16
  store i32 -9999, ptr @paUtilErr_, align 4, !tbaa !11
  tail call void (ptr, ...) @PaUtil_DebugPrint(ptr noundef nonnull @.str.13) #16
  %33 = load i32, ptr @paUtilErr_, align 4, !tbaa !11
  br label %35

34:                                               ; preds = %21
  store i32 0, ptr @paUtilErr_, align 4, !tbaa !11
  store i32 0, ptr %7, align 8, !tbaa !32
  br label %35

35:                                               ; preds = %34, %32, %18, %5
  %.0 = phi i32 [ -9986, %5 ], [ %33, %32 ], [ 0, %34 ], [ %19, %18 ]
  ret i32 %.0
}